target datalayout = "e-m:e-p270:32:32-p271:32:32-p272:64:64-i64:64-i128:128-f80:128-n8:16:32:64-S128"
target triple = "x86_64-pc-linux-gnu"

%"class.std::optional.449" = type { %"struct.std::_Optional_base.450" }
%"struct.std::_Optional_base.450" = type { %"struct.std::_Optional_payload.452" }
%"struct.std::_Optional_payload.452" = type { %"struct.std::_Optional_payload_base.base.454", [3 x i8] }
%"struct.std::_Optional_payload_base.base.454" = type <{ %"union.std::_Optional_payload_base<unsigned int>::_Storage", i8 }>
%"union.std::_Optional_payload_base<unsigned int>::_Storage" = type { i32 }
%"struct.std::_Optional_payload_base.453" = type <{ %"union.std::_Optional_payload_base<unsigned int>::_Storage", i8, [3 x i8] }>

; Function Attrs: mustprogress nounwind uwtable
define linkonce_odr hidden noundef nonnull align 4 dereferenceable(4) ptr @_ZNSt22_Optional_payload_baseIjE6_M_getEv(ptr noundef nonnull align 4 dereferenceable(5) %0) #0 comdat align 2 {
  %2 = alloca ptr, align 8
  store ptr %0, ptr %2, align 8
  %3 = load ptr, ptr %2, align 8
  %4 = getelementptr inbounds nuw %"struct.std::_Optional_payload_base.453", ptr %3, i32 0, i32 0
  ret ptr %4
}

; Function Attrs: mustprogress nounwind uwtable
define linkonce_odr hidden noundef nonnull align 4 dereferenceable(4) ptr @_ZNSt19_Optional_base_implIjSt14_Optional_baseIjLb1ELb1EEE6_M_getEv(ptr noundef nonnull align 1 dereferenceable(1) %0) #0 comdat align 2 {
  %2 = alloca ptr, align 8
  store ptr %0, ptr %2, align 8
  %3 = load ptr, ptr %2, align 8
  br label %4

4:                                                ; preds = %1
  br label %5

5:                                                ; preds = %4
  %6 = getelementptr inbounds nuw %"struct.std::_Optional_base.450", ptr %3, i32 0, i32 0
  %7 = call noundef nonnull align 4 dereferenceable(4) ptr @_ZNSt22_Optional_payload_baseIjE6_M_getEv(ptr noundef nonnull align 4 dereferenceable(5) %6) #12
  ret ptr %7
}

; Function Attrs: mustprogress nounwind uwtable
define linkonce_odr hidden noundef zeroext i1 @_ZNKSt19_Optional_base_implIjSt14_Optional_baseIjLb1ELb1EEE13_M_is_engagedEv(ptr noundef nonnull align 1 dereferenceable(1) %0) #0 comdat align 2 {
  %2 = alloca ptr, align 8
  store ptr %0, ptr %2, align 8
  %3 = load ptr, ptr %2, align 8
  %4 = getelementptr inbounds nuw %"struct.std::_Optional_base.450", ptr %3, i32 0, i32 0
  %5 = getelementptr inbounds nuw %"struct.std::_Optional_payload_base.453", ptr %4, i32 0, i32 1
  %6 = load i8, ptr %5, align 4
  %7 = trunc i8 %6 to i1
  ret i1 %7
}

; Function Attrs: mustprogress nounwind uwtable
define linkonce_odr hidden noundef nonnull align 4 dereferenceable(4) ptr @_ZNRSt8optionalIjEdeEv(ptr noundef nonnull align 4 dereferenceable(8) %0) #0 comdat align 2 {
  %2 = alloca ptr, align 8
  store ptr %0, ptr %2, align 8
  %3 = load ptr, ptr %2, align 8
  %4 = call noundef nonnull align 4 dereferenceable(4) ptr @_ZNSt19_Optional_base_implIjSt14_Optional_baseIjLb1ELb1EEE6_M_getEv(ptr noundef nonnull align 1 dereferenceable(1) %3) #12
  ret ptr %4
}

; Function Attrs: mustprogress nounwind uwtable
define linkonce_odr hidden noundef zeroext i1 @_ZNKSt8optionalIjEcvbEv(ptr noundef nonnull align 4 dereferenceable(8) %0) #0 comdat align 2 {
  %2 = alloca ptr, align 8
  store ptr %0, ptr %2, align 8
  %3 = load ptr, ptr %2, align 8
  %4 = call noundef zeroext i1 @_ZNKSt19_Optional_base_implIjSt14_Optional_baseIjLb1ELb1EEE13_M_is_engagedEv(ptr noundef nonnull align 1 dereferenceable(1) %3) #12
  ret i1 %4
}

; Function Attrs: mustprogress nounwind uwtable
define dso_local void @_ZN4llvm28setProfileInfoAfterUnrollingEPNS_4LoopES1_S1_m(ptr noundef %0, ptr noundef %1, ptr noundef %2, i64 noundef %3) #0 {
  %5 = alloca ptr, align 8
  %6 = alloca ptr, align 8
  %7 = alloca ptr, align 8
  %8 = alloca i64, align 8
  %9 = alloca i32, align 4
  %10 = alloca %"class.std::optional.449", align 4
  %11 = alloca i32, align 4
  %12 = alloca i32, align 4
  store ptr %0, ptr %5, align 8
  store ptr %1, ptr %6, align 8
  store ptr %2, ptr %7, align 8
  store i64 %3, ptr %8, align 8
  store i32 0, ptr %9, align 4
  %13 = load ptr, ptr %5, align 8
  %14 = call i64 @_ZN4llvm25getLoopEstimatedTripCountEPNS_4LoopEPj(ptr noundef %13, ptr noundef %9)
  %15 = getelementptr inbounds nuw %"class.std::optional.449", ptr %10, i32 0, i32 0
  %16 = getelementptr inbounds nuw %"struct.std::_Optional_base.450", ptr %15, i32 0, i32 0
  store i64 %14, ptr %16, align 4
  %17 = call noundef zeroext i1 @_ZNKSt8optionalIjEcvbEv(ptr noundef nonnull align 4 dereferenceable(8) %10) #12
  br i1 %17, label %19, label %18

18:                                               ; preds = %4
  br label %40

19:                                               ; preds = %4
  %20 = call noundef nonnull align 4 dereferenceable(4) ptr @_ZNRSt8optionalIjEdeEv(ptr noundef nonnull align 4 dereferenceable(8) %10) #12
  %21 = load i32, ptr %20, align 4
  %22 = zext i32 %21 to i64
  %23 = load i64, ptr %8, align 8
  %24 = udiv i64 %22, %23
  %25 = trunc i64 %24 to i32
  store i32 %25, ptr %11, align 4
  %26 = call noundef nonnull align 4 dereferenceable(4) ptr @_ZNRSt8optionalIjEdeEv(ptr noundef nonnull align 4 dereferenceable(8) %10) #12
  %27 = load i32, ptr %26, align 4
  %28 = zext i32 %27 to i64
  %29 = load i64, ptr %8, align 8
  %30 = urem i64 %28, %29
  %31 = trunc i64 %30 to i32
  store i32 %31, ptr %12, align 4
  %32 = load ptr, ptr %6, align 8
  %33 = load i32, ptr %11, align 4
  %34 = load i32, ptr %9, align 4
  %35 = call noundef zeroext i1 @_ZN4llvm25setLoopEstimatedTripCountEPNS_4LoopEjj(ptr noundef %32, i32 noundef %33, i32 noundef %34)
  %36 = load ptr, ptr %7, align 8
  %37 = load i32, ptr %12, align 4
  %38 = load i32, ptr %9, align 4
  %39 = call noundef zeroext i1 @_ZN4llvm25setLoopEstimatedTripCountEPNS_4LoopEjj(ptr noundef %36, i32 noundef %37, i32 noundef %38)
  br label %40

40:                                               ; preds = %19, %18
  ret void
}