; Function Attrs: mustprogress nounwind uwtable
define dso_local void @_ZN4llvm28setProfileInfoAfterUnrollingEPNS_4LoopES1_S1_m(ptr noundef nonnull %0, ptr noundef %1, ptr noundef %2, i64 noundef %3) local_unnamed_addr #0 {
  %5 = alloca i32, align 4
  store i32 0, ptr %5, align 4
  %6 = call i64 @_ZN4llvm25getLoopEstimatedTripCountEPNS_4LoopEPj(ptr noundef %0, ptr noundef nonnull %5)
  %.not = icmp ult i64 %6, 4294967296
  br i1 %.not, label %17, label %7

7:                                                ; preds = %4
  %8 = and i64 %6, 4294967295
  %9 = udiv i64 %8, %3
  %10 = trunc nuw i64 %9 to i32
  %11 = urem i64 %8, %3
  %12 = trunc nuw i64 %11 to i32
  %13 = load i32, ptr %5, align 4
  %14 = call noundef zeroext i1 @_ZN4llvm25setLoopEstimatedTripCountEPNS_4LoopEjj(ptr noundef %1, i32 noundef %10, i32 noundef %13)
  %15 = load i32, ptr %5, align 4
  %16 = call noundef zeroext i1 @_ZN4llvm25setLoopEstimatedTripCountEPNS_4LoopEjj(ptr noundef %2, i32 noundef %12, i32 noundef %15)
  br label %17

17:                                               ; preds = %4, %7
  ret void
}